target datalayout = "e-m:e-p270:32:32-p271:32:32-p272:64:64-i64:64-i128:128-f80:128-n8:16:32:64-S128"
target triple = "x86_64-unknown-linux-gnu"

%struct.timeval = type { i64, i64 }
%struct.timespec = type { i64, i64 }

; Function Attrs: nounwind uwtable
define dso_local void @evutil_usleep_(ptr noundef %tv) #0 {
entry:
  %tv.addr = alloca ptr, align 8
  %ts = alloca %struct.timespec, align 8
  store ptr %tv, ptr %tv.addr, align 8
  %0 = load ptr, ptr %tv.addr, align 8
  %tobool = icmp ne ptr %0, null
  br i1 %tobool, label %if.end, label %if.then

if.then:                                          ; preds = %entry
  br label %return

if.end:                                           ; preds = %entry
  %1 = load ptr, ptr %tv.addr, align 8
  %tv_sec = getelementptr inbounds %struct.timeval, ptr %1, i32 0, i32 0
  %2 = load i64, ptr %tv_sec, align 8
  %tv_sec1 = getelementptr inbounds %struct.timespec, ptr %ts, i32 0, i32 0
  store i64 %2, ptr %tv_sec1, align 8
  %3 = load ptr, ptr %tv.addr, align 8
  %tv_usec = getelementptr inbounds %struct.timeval, ptr %3, i32 0, i32 1
  %4 = load i64, ptr %tv_usec, align 8
  %mul = mul nsw i64 %4, 1000
  %tv_nsec = getelementptr inbounds %struct.timespec, ptr %ts, i32 0, i32 1
  store i64 %mul, ptr %tv_nsec, align 8
  %call = call i32 @nanosleep(ptr noundef %ts, ptr noundef null)
  br label %return

return:                                           ; preds = %if.end, %if.then
  ret void
}