; Function Attrs: nounwind uwtable
define dso_local void @evutil_usleep_(ptr noundef readonly %tv) local_unnamed_addr #1 {
entry:
  %ts = alloca %struct.timespec, align 8
  %tobool.not = icmp eq ptr %tv, null
  br i1 %tobool.not, label %return, label %if.end

if.end:                                           ; preds = %entry
  %0 = load i64, ptr %tv, align 8
  store i64 %0, ptr %ts, align 8
  %tv_usec = getelementptr inbounds nuw i8, ptr %tv, i64 8
  %1 = load i64, ptr %tv_usec, align 8
  %mul = mul nsw i64 %1, 1000
  %tv_nsec = getelementptr inbounds nuw i8, ptr %ts, i64 8
  store i64 %mul, ptr %tv_nsec, align 8
  %call = call i32 @nanosleep(ptr noundef nonnull %ts, ptr noundef null) #8
  br label %return

return:                                           ; preds = %entry, %if.end
  ret void
}